; Function Attrs: mustprogress uwtable
define hidden void @_ZN11proof_utils22push_instantiations_upER7obj_refI3app11ast_managerE(ptr noundef nonnull align 8 dereferenceable(16) %0) local_unnamed_addr #3 align 2 {
  %2 = alloca %class.push_instantiations_up_cl, align 8
  call void @llvm.lifetime.start.p0(i64 8, ptr nonnull %2) #20
  %3 = getelementptr inbounds nuw i8, ptr %0, i64 8
  %4 = load ptr, ptr %3, align 8, !tbaa !109
  store ptr %4, ptr %2, align 8, !tbaa !12
  call void @_ZN25push_instantiations_up_clclER7obj_refI3app11ast_managerE(ptr noundef nonnull align 8 dereferenceable(8) %2, ptr noundef nonnull align 8 dereferenceable(16) %0)
  call void @llvm.lifetime.end.p0(i64 8, ptr nonnull %2) #20
  ret void
}